target datalayout = "e-m:e-p270:32:32-p271:32:32-p272:64:64-i64:64-i128:128-f80:128-n8:16:32:64-S128"
target triple = "x86_64-pc-linux-gnu"

%struct.AVStream = type { ptr, i32, i32, ptr, ptr, %struct.AVRational, i64, i64, i64, i32, i32, %struct.AVRational, ptr, %struct.AVRational, %struct.AVPacket, i32, %struct.AVRational, i32 }
%struct.AVPacket = type { ptr, i64, i64, ptr, i32, i32, i32, ptr, i32, i64, i64, ptr, ptr, %struct.AVRational }
%struct.AVRational = type { i32, i32 }
%struct.FFStream = type { %struct.AVStream, ptr, i32, ptr, i32, ptr, i32, %struct.anon.1, i32, i32, %struct.FFFrac, ptr, ptr, i32, i32, i64, i64, i32, i32, i32, i64, i64, i64, i32, i64, i64, i64, i32, i32, [17 x i64], [17 x i8], [17 x i64], i64, i8, i8, %struct.AVRational, %struct.AVProbeData, ptr, i64, i32, i32, i32, ptr, i32, i32, i64, i64, ptr, %struct.AVRational }
%struct.anon.1 = type { ptr, i32 }
%struct.FFFrac = type { i64, i64, i64 }
%struct.AVProbeData = type { ptr, ptr, i32, ptr }
%struct.AVBSFContext = type { ptr, ptr, ptr, ptr, ptr, %struct.AVRational, %struct.AVRational }
%struct.AVBitStreamFilter = type { ptr, ptr, ptr }

@.str.5 = private unnamed_addr constant [30 x i8] c"Assertion %s failed at %s:%d\0A\00", align 1
@.str.6 = private unnamed_addr constant [11 x i8] c"!sti->bsfc\00", align 1
@.str.7 = private unnamed_addr constant [18 x i8] c"libavformat/mux.c\00", align 1
@.str.8 = private unnamed_addr constant [31 x i8] c"Unknown bitstream filter '%s'\0A\00", align 1
@.str.9 = private unnamed_addr constant [2 x i8] c"=\00", align 1
@.str.10 = private unnamed_addr constant [2 x i8] c":\00", align 1
@.str.11 = private unnamed_addr constant [57 x i8] c"Automatically inserted bitstream filter '%s'; args='%s'\0A\00", align 1
@.str.12 = private unnamed_addr constant [1 x i8] zeroinitializer, align 1

; Function Attrs: alwaysinline nounwind uwtable
define internal ptr @ffstream(ptr noundef %0) #4 {
  %2 = alloca ptr, align 8
  store ptr %0, ptr %2, align 8, !tbaa !51
  %3 = load ptr, ptr %2, align 8, !tbaa !51
  ret ptr %3
}

; Function Attrs: nounwind uwtable
define i32 @ff_stream_add_bitstream_filter(ptr noundef %0, ptr noundef %1, ptr noundef %2) #0 {
  %4 = alloca i32, align 4
  %5 = alloca ptr, align 8
  %6 = alloca ptr, align 8
  %7 = alloca ptr, align 8
  %8 = alloca i32, align 4
  %9 = alloca ptr, align 8
  %10 = alloca ptr, align 8
  %11 = alloca ptr, align 8
  %12 = alloca i32, align 4
  store ptr %0, ptr %5, align 8, !tbaa !51
  store ptr %1, ptr %6, align 8, !tbaa !12
  store ptr %2, ptr %7, align 8, !tbaa !12
  call void @llvm.lifetime.start.p0(i64 4, ptr %8) #11
  call void @llvm.lifetime.start.p0(i64 8, ptr %9) #11
  call void @llvm.lifetime.start.p0(i64 8, ptr %10) #11
  %13 = load ptr, ptr %5, align 8, !tbaa !51
  %14 = call ptr @ffstream(ptr noundef %13)
  store ptr %14, ptr %10, align 8, !tbaa !53
  call void @llvm.lifetime.start.p0(i64 8, ptr %11) #11
  br label %15

15:                                               ; preds = %3
  %16 = load ptr, ptr %10, align 8, !tbaa !53
  %17 = getelementptr inbounds nuw %struct.FFStream, ptr %16, i32 0, i32 3
  %18 = load ptr, ptr %17, align 8, !tbaa !166
  %19 = icmp ne ptr %18, null
  br i1 %19, label %20, label %21

20:                                               ; preds = %15
  call void (ptr, i32, ptr, ...) @av_log(ptr noundef null, i32 noundef 0, ptr noundef @.str.5, ptr noundef @.str.6, ptr noundef @.str.7, i32 noundef 1301)
  call void @abort() #13
  unreachable

21:                                               ; preds = %15
  br label %22

22:                                               ; preds = %21
  br label %23

23:                                               ; preds = %22
  %24 = load ptr, ptr %6, align 8, !tbaa !12
  %25 = call ptr @av_bsf_get_by_name(ptr noundef %24)
  store ptr %25, ptr %9, align 8, !tbaa !181
  %26 = icmp ne ptr %25, null
  br i1 %26, label %29, label %27

27:                                               ; preds = %23
  %28 = load ptr, ptr %6, align 8, !tbaa !12
  call void (ptr, i32, ptr, ...) @av_log(ptr noundef null, i32 noundef 16, ptr noundef @.str.8, ptr noundef %28)
  store i32 -1179861752, ptr %4, align 4
  store i32 1, ptr %12, align 4
  br label %88

29:                                               ; preds = %23
  %30 = load ptr, ptr %9, align 8, !tbaa !181
  %31 = call i32 @av_bsf_alloc(ptr noundef %30, ptr noundef %11)
  store i32 %31, ptr %8, align 4, !tbaa !16
  %32 = icmp slt i32 %31, 0
  br i1 %32, label %33, label %35

33:                                               ; preds = %29
  %34 = load i32, ptr %8, align 4, !tbaa !16
  store i32 %34, ptr %4, align 4
  store i32 1, ptr %12, align 4
  br label %88

35:                                               ; preds = %29
  %36 = load ptr, ptr %11, align 8, !tbaa !171
  %37 = getelementptr inbounds nuw %struct.AVBSFContext, ptr %36, i32 0, i32 5
  %38 = load ptr, ptr %5, align 8, !tbaa !51
  %39 = getelementptr inbounds nuw %struct.AVStream, ptr %38, i32 0, i32 5
  call void @llvm.memcpy.p0.p0.i64(ptr align 8 %37, ptr align 8 %39, i64 8, i1 false), !tbaa.struct !182
  %40 = load ptr, ptr %11, align 8, !tbaa !171
  %41 = getelementptr inbounds nuw %struct.AVBSFContext, ptr %40, i32 0, i32 3
  %42 = load ptr, ptr %41, align 8, !tbaa !183
  %43 = load ptr, ptr %5, align 8, !tbaa !51
  %44 = getelementptr inbounds nuw %struct.AVStream, ptr %43, i32 0, i32 3
  %45 = load ptr, ptr %44, align 8, !tbaa !55
  %46 = call i32 @avcodec_parameters_copy(ptr noundef %42, ptr noundef %45)
  store i32 %46, ptr %8, align 4, !tbaa !16
  %47 = icmp slt i32 %46, 0
  br i1 %47, label %48, label %50

48:                                               ; preds = %35
  call void @av_bsf_free(ptr noundef %11)
  %49 = load i32, ptr %8, align 4, !tbaa !16
  store i32 %49, ptr %4, align 4
  store i32 1, ptr %12, align 4
  br label %88

50:                                               ; preds = %35
  %51 = load ptr, ptr %7, align 8, !tbaa !12
  %52 = icmp ne ptr %51, null
  br i1 %52, label %53, label %70

53:                                               ; preds = %50
  %54 = load ptr, ptr %11, align 8, !tbaa !171
  %55 = getelementptr inbounds nuw %struct.AVBSFContext, ptr %54, i32 0, i32 1
  %56 = load ptr, ptr %55, align 8, !tbaa !172
  %57 = getelementptr inbounds nuw %struct.AVBitStreamFilter, ptr %56, i32 0, i32 2
  %58 = load ptr, ptr %57, align 8, !tbaa !184
  %59 = icmp ne ptr %58, null
  br i1 %59, label %60, label %70

60:                                               ; preds = %53
  %61 = load ptr, ptr %11, align 8, !tbaa !171
  %62 = getelementptr inbounds nuw %struct.AVBSFContext, ptr %61, i32 0, i32 2
  %63 = load ptr, ptr %62, align 8, !tbaa !185
  %64 = load ptr, ptr %7, align 8, !tbaa !12
  %65 = call i32 @av_set_options_string(ptr noundef %63, ptr noundef %64, ptr noundef @.str.9, ptr noundef @.str.10)
  store i32 %65, ptr %8, align 4, !tbaa !16
  %66 = icmp slt i32 %65, 0
  br i1 %66, label %67, label %69

67:                                               ; preds = %60
  call void @av_bsf_free(ptr noundef %11)
  %68 = load i32, ptr %8, align 4, !tbaa !16
  store i32 %68, ptr %4, align 4
  store i32 1, ptr %12, align 4
  br label %88

69:                                               ; preds = %60
  br label %70

70:                                               ; preds = %69, %53, %50
  %71 = load ptr, ptr %11, align 8, !tbaa !171
  %72 = call i32 @av_bsf_init(ptr noundef %71)
  store i32 %72, ptr %8, align 4, !tbaa !16
  %73 = icmp slt i32 %72, 0
  br i1 %73, label %74, label %76

74:                                               ; preds = %70
  call void @av_bsf_free(ptr noundef %11)
  %75 = load i32, ptr %8, align 4, !tbaa !16
  store i32 %75, ptr %4, align 4
  store i32 1, ptr %12, align 4
  br label %88

76:                                               ; preds = %70
  %77 = load ptr, ptr %11, align 8, !tbaa !171
  %78 = load ptr, ptr %10, align 8, !tbaa !53
  %79 = getelementptr inbounds nuw %struct.FFStream, ptr %78, i32 0, i32 3
  store ptr %77, ptr %79, align 8, !tbaa !166
  %80 = load ptr, ptr %6, align 8, !tbaa !12
  %81 = load ptr, ptr %7, align 8, !tbaa !12
  %82 = icmp ne ptr %81, null
  br i1 %82, label %83, label %85

83:                                               ; preds = %76
  %84 = load ptr, ptr %7, align 8, !tbaa !12
  br label %86

85:                                               ; preds = %76
  br label %86

86:                                               ; preds = %85, %83
  %87 = phi ptr [ %84, %83 ], [ @.str.12, %85 ]
  call void (ptr, i32, ptr, ...) @av_log(ptr noundef null, i32 noundef 40, ptr noundef @.str.11, ptr noundef %80, ptr noundef %87)
  store i32 1, ptr %4, align 4
  store i32 1, ptr %12, align 4
  br label %88

88:                                               ; preds = %86, %74, %67, %48, %33, %27
  call void @llvm.lifetime.end.p0(i64 8, ptr %11) #11
  call void @llvm.lifetime.end.p0(i64 8, ptr %10) #11
  call void @llvm.lifetime.end.p0(i64 8, ptr %9) #11
  call void @llvm.lifetime.end.p0(i64 4, ptr %8) #11
  %89 = load i32, ptr %4, align 4
  ret i32 %89
}