; Function Attrs: nounwind uwtable
define range(i32 -2147483648, 2) i32 @ff_stream_add_bitstream_filter(ptr noundef captures(none) %0, ptr noundef %1, ptr noundef %2) local_unnamed_addr #0 {
  %4 = alloca ptr, align 8
  call void @llvm.lifetime.start.p0(i64 8, ptr nonnull %4) #13
  %5 = getelementptr inbounds nuw i8, ptr %0, i64 232
  %6 = load ptr, ptr %5, align 8, !tbaa !149
  %.not = icmp eq ptr %6, null
  br i1 %.not, label %8, label %7

7:                                                ; preds = %3
  tail call void (ptr, i32, ptr, ...) @av_log(ptr noundef null, i32 noundef 0, ptr noundef nonnull @.str.5, ptr noundef nonnull @.str.6, ptr noundef nonnull @.str.7, i32 noundef 1301) #13
  tail call void @abort() #15
  unreachable

8:                                                ; preds = %3
  %9 = tail call ptr @av_bsf_get_by_name(ptr noundef %1) #13
  %.not23 = icmp eq ptr %9, null
  br i1 %.not23, label %10, label %11

10:                                               ; preds = %8
  tail call void (ptr, i32, ptr, ...) @av_log(ptr noundef null, i32 noundef 16, ptr noundef nonnull @.str.8, ptr noundef %1) #13
  br label %46

11:                                               ; preds = %8
  %12 = call i32 @av_bsf_alloc(ptr noundef nonnull %9, ptr noundef nonnull %4) #13
  %13 = icmp slt i32 %12, 0
  br i1 %13, label %46, label %14

14:                                               ; preds = %11
  %15 = load ptr, ptr %4, align 8, !tbaa !162
  %16 = getelementptr inbounds nuw i8, ptr %15, i64 40
  %17 = getelementptr inbounds nuw i8, ptr %0, i64 32
  %18 = load i64, ptr %17, align 8
  store i64 %18, ptr %16, align 8
  %19 = getelementptr inbounds nuw i8, ptr %15, i64 24
  %20 = load ptr, ptr %19, align 8, !tbaa !163
  %21 = getelementptr inbounds nuw i8, ptr %0, i64 16
  %22 = load ptr, ptr %21, align 8, !tbaa !40
  %23 = call i32 @avcodec_parameters_copy(ptr noundef %20, ptr noundef %22) #13
  %24 = icmp slt i32 %23, 0
  br i1 %24, label %25, label %26

25:                                               ; preds = %14
  call void @av_bsf_free(ptr noundef nonnull %4) #13
  br label %46

26:                                               ; preds = %14
  %.not24 = icmp eq ptr %2, null
  %.pre26 = load ptr, ptr %4, align 8, !tbaa !162
  br i1 %.not24, label %38, label %27

27:                                               ; preds = %26
  %28 = getelementptr inbounds nuw i8, ptr %.pre26, i64 8
  %29 = load ptr, ptr %28, align 8, !tbaa !155
  %30 = getelementptr inbounds nuw i8, ptr %29, i64 16
  %31 = load ptr, ptr %30, align 8, !tbaa !164
  %.not25 = icmp eq ptr %31, null
  br i1 %.not25, label %38, label %32

32:                                               ; preds = %27
  %33 = getelementptr inbounds nuw i8, ptr %.pre26, i64 16
  %34 = load ptr, ptr %33, align 8, !tbaa !165
  %35 = call i32 @av_set_options_string(ptr noundef %34, ptr noundef nonnull %2, ptr noundef nonnull @.str.9, ptr noundef nonnull @.str.10) #13
  %36 = icmp slt i32 %35, 0
  br i1 %36, label %37, label %._crit_edge

._crit_edge:                                      ; preds = %32
  %.pre = load ptr, ptr %4, align 8, !tbaa !162
  br label %38

37:                                               ; preds = %32
  call void @av_bsf_free(ptr noundef nonnull %4) #13
  br label %46

38:                                               ; preds = %._crit_edge, %27, %26
  %39 = phi ptr [ %.pre, %._crit_edge ], [ %.pre26, %27 ], [ %.pre26, %26 ]
  %40 = call i32 @av_bsf_init(ptr noundef %39) #13
  %41 = icmp slt i32 %40, 0
  br i1 %41, label %42, label %43

42:                                               ; preds = %38
  call void @av_bsf_free(ptr noundef nonnull %4) #13
  br label %46

43:                                               ; preds = %38
  %44 = load ptr, ptr %4, align 8, !tbaa !162
  store ptr %44, ptr %5, align 8, !tbaa !149
  %45 = select i1 %.not24, ptr @.str.12, ptr %2
  call void (ptr, i32, ptr, ...) @av_log(ptr noundef null, i32 noundef 40, ptr noundef nonnull @.str.11, ptr noundef %1, ptr noundef nonnull %45) #13
  br label %46

46:                                               ; preds = %11, %43, %42, %37, %25, %10
  %.0 = phi i32 [ %23, %25 ], [ %35, %37 ], [ %40, %42 ], [ 1, %43 ], [ -1179861752, %10 ], [ %12, %11 ]
  call void @llvm.lifetime.end.p0(i64 8, ptr nonnull %4) #13
  ret i32 %.0
}